Certificate:
    Data:
        Version: 3 (0x2)
        Serial Number: 1 (0x1)
        Signature Algorithm: sha1WithRSAEncryption
        Issuer: C=US, ST=TX, L=Grapevine, O=BES, OU=CU, CN=FranzZemen/emailAddress=franz.zemen@bhengagement.com
        Validity
            Not Before: Mar  9 11:26:36 2016 GMT
            Not After : Mar  9 11:26:36 2017 GMT
        Subject: C=US, ST=TX, L=Grapevine, O=BES, OU=CU, CN=FranzZemen/emailAddress=franz.zemen@bhengagement.com
        Subject Public Key Info:
            Public Key Algorithm: rsaEncryption
            RSA Public Key: (1024 bit)
                Modulus (1024 bit):
                    00:ce:d2:65:8d:06:e8:c2:f9:e0:c2:31:b7:b8:d4:
                    eb:6b:e8:f2:78:f0:56:63:f7:47:28:aa:3c:00:7f:
                    f4:bd:26:e7:7c:32:e5:15:e3:fa:23:96:b4:67:1f:
                    70:5f:11:c6:cb:05:10:c7:44:e6:9b:5a:1b:62:d3:
                    23:c5:ec:ca:a8:79:b1:8b:7b:d3:09:6c:34:ba:62:
                    f1:25:22:22:26:f0:bd:c6:34:2b:8f:f8:be:ee:a1:
                    60:0e:ad:a5:38:ac:77:b0:60:c7:c3:dc:66:1a:f4:
                    84:1e:e1:03:72:6d:c4:19:dd:06:d8:5c:9e:34:09:
                    b9:b9:10:c4:bd:03:7f:81:cd
                Exponent: 65537 (0x10001)
        X509v3 extensions:
            X509v3 Basic Constraints: 
                CA:FALSE
            Netscape Comment: 
                OpenSSL Generated Certificate
            X509v3 Subject Key Identifier: 
                29:A7:79:59:F5:51:7C:0B:AE:73:10:78:6A:CF:FF:9D:A2:37:80:9E
            X509v3 Authority Key Identifier: 
                keyid:99:B5:BC:DE:A3:DD:B4:E5:51:4B:17:31:50:5C:BB:51:D1:56:32:85

    Signature Algorithm: sha1WithRSAEncryption
        2f:5d:51:70:b5:2a:cc:c5:3f:fa:ed:84:a3:d9:57:1e:92:7a:
        6e:ad:29:dd:2f:c6:c3:13:2d:4e:ca:b4:35:6e:83:71:7b:58:
        ad:17:c2:17:4c:bb:ac:87:93:9b:be:a8:5a:b6:80:96:5d:0d:
        8f:cd:af:25:28:e7:4f:09:35:66:d9:7c:8a:6c:33:9b:c0:2f:
        4c:ad:35:7c:00:15:39:ae:bd:6b:65:d4:e5:3f:cd:af:22:85:
        4d:6a:5c:c6:d6:25:02:82:38:fa:38:a5:b5:94:fb:b8:e9:af:
        ea:c0:86:ff:05:e9:3a:2b:3e:e3:67:da:48:ea:5f:5e:0d:a2:
        9d:b7:20:28:fe:ad:7e:34:1c:b4:57:6b:f6:d4:d0:19:80:8a:
        10:d2:f9:63:c1:be:f9:16:cb:3e:fc:62:32:dd:53:81:ef:91:
        54:84:ed:e7:d9:fe:6b:1f:b8:d1:b2:b5:ba:71:0b:cf:71:0a:
        ed:9d:77:d2:5f:6e:cb:3f:18:8e:5b:6c:6d:e0:ae:8b:fd:5a:
        bd:01:38:36:b2:71:2a:e7:94:33:54:4c:11:d4:04:d8:df:70:
        0b:e9:9a:43:a3:a0:89:59:0a:ac:d7:68:56:e9:28:fa:0c:3c:
        c7:4a:3b:fe:77:21:16:8c:2b:77:3f:85:28:41:88:89:dd:52:
        da:8c:fc:45
-----BEGIN CERTIFICATE-----
MIIDijCCAnKgAwIBAgIBATANBgkqhkiG9w0BAQUFADCBizELMAkGA1UEBhMCVVMx
CzAJBgNVBAgTAlRYMRIwEAYDVQQHEwlHcmFwZXZpbmUxDDAKBgNVBAoTA0JFUzEL
MAkGA1UECxMCQ1UxEzARBgNVBAMTCkZyYW56WmVtZW4xKzApBgkqhkiG9w0BCQEW
HGZyYW56LnplbWVuQGJoZW5nYWdlbWVudC5jb20wHhcNMTYwMzA5MTEyNjM2WhcN
MTcwMzA5MTEyNjM2WjCBizELMAkGA1UEBhMCVVMxCzAJBgNVBAgTAlRYMRIwEAYD
VQQHEwlHcmFwZXZpbmUxDDAKBgNVBAoTA0JFUzELMAkGA1UECxMCQ1UxEzARBgNV
BAMTCkZyYW56WmVtZW4xKzApBgkqhkiG9w0BCQEWHGZyYW56LnplbWVuQGJoZW5n
YWdlbWVudC5jb20wgZ8wDQYJKoZIhvcNAQEBBQADgY0AMIGJAoGBAM7SZY0G6ML5
4MIxt7jU62vo8njwVmP3RyiqPAB/9L0m53wy5RXj+iOWtGcfcF8RxssFEMdE5pta
G2LTI8Xsyqh5sYt70wlsNLpi8SUiIibwvcY0K4/4vu6hYA6tpTisd7Bgx8PcZhr0
hB7hA3JtxBndBthcnjQJubkQxL0Df4HNAgMBAAGjezB5MAkGA1UdEwQCMAAwLAYJ
YIZIAYb4QgENBB8WHU9wZW5TU0wgR2VuZXJhdGVkIENlcnRpZmljYXRlMB0GA1Ud
DgQWBBQpp3lZ9VF8C65zEHhqz/+dojeAnjAfBgNVHSMEGDAWgBSZtbzeo9205VFL
FzFQXLtR0VYyhTANBgkqhkiG9w0BAQUFAAOCAQEAL11RcLUqzMU/+u2Eo9lXHpJ6
bq0p3S/GwxMtTsq0NW6DcXtYrRfCF0y7rIeTm76oWraAll0Nj82vJSjnTwk1Ztl8
imwzm8AvTK01fAAVOa69a2XU5T/NryKFTWpcxtYlAoI4+jiltZT7uOmv6sCG/wXp
Ois+42faSOpfXg2inbcgKP6tfjQctFdr9tTQGYCKENL5Y8G++RbLPvxiMt1Tge+R
VITt59n+ax+40bK1unELz3EK7Z130l9uyz8YjltsbeCui/1avQE4NrJxKueUM1RM
EdQE2N9wC+maQ6OgiVkKrNdoVuko+gw8x0o7/nchFowrdz+FKEGIid1S2oz8RQ==
-----END CERTIFICATE-----
